BL51 BANKED LINKER/LOCATER V6.22                                                        09/28/2021  10:43:43  PAGE 1


BL51 BANKED LINKER/LOCATER V6.22, INVOKED BY:
C:\KEIL_C51\C51\BIN\BL51.EXE .\obj\STARTUP.obj, .\obj\main.obj, .\obj\LED.obj, .\obj\BitMap.obj, .\obj\SysLed.obj, .\obj
>> \Timer.obj, .\obj\Bleep.obj, .\obj\KEY.obj TO .\obj\function-test PRINT (.\list\function-test.m51) RAMSIZE (256)


MEMORY MODEL: SMALL


INPUT MODULES INCLUDED:
  .\obj\STARTUP.obj (?C_STARTUP)
  .\obj\main.obj (MAIN)
  .\obj\LED.obj (LED)
  .\obj\BitMap.obj (BITMAP)
  .\obj\SysLed.obj (SYSLED)
  .\obj\Timer.obj (TIMER)
  .\obj\Bleep.obj (BLEEP)
  .\obj\KEY.obj (KEY)
  C:\KEIL_C51\C51\LIB\C51S.LIB (?C_INIT)


LINK MAP OF MODULE:  .\obj\function-test (?C_STARTUP)


            TYPE    BASE      LENGTH    RELOCATION   SEGMENT NAME
            -----------------------------------------------------

            * * * * * * *   D A T A   M E M O R Y   * * * * * * *
            REG     0000H     0008H     ABSOLUTE     "REG BANK 0"
            DATA    0008H     0012H     UNIT         ?DT?BITMAP
            DATA    001AH     0004H     UNIT         ?DT?KEY
            DATA    001EH     0002H     UNIT         ?DT?SYSLED
            BIT     0020H.0   0000H.4   UNIT         ?BI?LED
            BIT     0020H.4   0000H.4   UNIT         ?BI?KEY
            BIT     0021H.0   0000H.2   UNIT         ?BI?TIMER
                    0021H.2   0000H.6                *** GAP ***
            DATA    0022H     000BH     UNIT         ?DT?LED
            DATA    002DH     0002H     UNIT         ?DT?BLEEP
            IDATA   002FH     0001H     UNIT         ?STACK

            * * * * * * *   C O D E   M E M O R Y   * * * * * * *
            CODE    0000H     0003H     ABSOLUTE     
                    0003H     0008H                  *** GAP ***
            CODE    000BH     0003H     ABSOLUTE     
                    000EH     000DH                  *** GAP ***
            CODE    001BH     0003H     ABSOLUTE     
                    001EH     07E2H                  *** GAP ***
            CODE    0800H     008CH     UNIT         ?C_C51STARTUP
            CODE    088CH     006DH     UNIT         ?PR?BITMAP_DISPLAY?BITMAP
            CODE    08F9H     0068H     UNIT         ?CO?BITMAP
            CODE    0961H     0050H     UNIT         ?C_INITSEG
            CODE    09B1H     0050H     UNIT         ?PR?MAIN_BITMAP?BITMAP
            CODE    0A01H     004AH     UNIT         ?PR?BITMAP_INIT?BITMAP
            CODE    0A4BH     0047H     UNIT         ?PR?KEY2_CHECK?KEY
            CODE    0A92H     0045H     UNIT         ?PR?KEY1_CHECK?KEY
            CODE    0AD7H     0042H     UNIT         ?PR?LIGHT4?LED
            CODE    0B19H     0040H     UNIT         ?PR?MAIN_LED?LED
            CODE    0B59H     002DH     UNIT         ?PR?MAIN?MAIN
            CODE    0B86H     002AH     UNIT         ?PR?BLEEP?BLEEP
BL51 BANKED LINKER/LOCATER V6.22                                                      09/28/2021  10:43:43  PAGE 2


            CODE    0BB0H     0023H     UNIT         ?PR?LIGHT1?LED
            CODE    0BD3H     0023H     UNIT         ?PR?LIGHT2?LED
            CODE    0BF6H     0023H     UNIT         ?PR?LIGHT3?LED
            CODE    0C19H     001DH     UNIT         ?PR?BLEEP_INIT?BLEEP
            CODE    0C36H     0019H     UNIT         ?PR?SYSLED?SYSLED
            CODE    0C4FH     0015H     UNIT         ?PR?TIMER0INIT?TIMER
            CODE    0C64H     0015H     UNIT         ?PR?TIMER1INIT?TIMER
            CODE    0C79H     0010H     UNIT         ?CO?LED
            CODE    0C89H     0003H     UNIT         ?PR?T0_ISR?TIMER
            CODE    0C8CH     0003H     UNIT         ?PR?T1_ISR?TIMER
            CODE    0C8FH     0003H     UNIT         ?PR?BLEEPON?BLEEP
            CODE    0C92H     0003H     UNIT         ?PR?BLEEPOFF?BLEEP



OVERLAY MAP OF MODULE:   .\obj\function-test (?C_STARTUP)


SEGMENT
  +--> CALLED SEGMENT
---------------------
?C_C51STARTUP
  +--> ?PR?MAIN?MAIN
  +--> ?C_INITSEG

?PR?MAIN?MAIN
  +--> ?PR?BITMAP_INIT?BITMAP
  +--> ?PR?BLEEP_INIT?BLEEP
  +--> ?PR?TIMER0INIT?TIMER
  +--> ?PR?TIMER1INIT?TIMER
  +--> ?PR?KEY1_CHECK?KEY
  +--> ?PR?KEY2_CHECK?KEY
  +--> ?PR?BITMAP_DISPLAY?BITMAP
  +--> ?PR?SYSLED?SYSLED
  +--> ?PR?BLEEP?BLEEP
  +--> ?PR?MAIN_LED?LED
  +--> ?PR?MAIN_BITMAP?BITMAP

?PR?BLEEP?BLEEP
  +--> ?PR?BLEEPON?BLEEP
  +--> ?PR?BLEEPOFF?BLEEP

?PR?MAIN_LED?LED
  +--> ?PR?LIGHT1?LED
  +--> ?PR?LIGHT2?LED
  +--> ?PR?LIGHT3?LED
  +--> ?PR?LIGHT4?LED

?PR?LIGHT4?LED
  +--> ?CO?LED

?PR?MAIN_BITMAP?BITMAP
  +--> ?CO?BITMAP



SYMBOL TABLE OF MODULE:  .\obj\function-test (?C_STARTUP)
BL51 BANKED LINKER/LOCATER V6.22                                                      09/28/2021  10:43:43  PAGE 3



  VALUE           TYPE          NAME
  ----------------------------------

  -------         MODULE        ?C_STARTUP
  C:0800H         SEGMENT       ?C_C51STARTUP
  I:002FH         SEGMENT       ?STACK
  C:0000H         PUBLIC        ?C_STARTUP
  D:00E0H         SYMBOL        ACC
  D:00F0H         SYMBOL        B
  D:0083H         SYMBOL        DPH
  D:0082H         SYMBOL        DPL
  N:0000H         SYMBOL        IBPSTACK
  N:0100H         SYMBOL        IBPSTACKTOP
  N:0080H         SYMBOL        IDATALEN
  C:0803H         SYMBOL        IDATALOOP
  N:0000H         SYMBOL        PBPSTACK
  N:0100H         SYMBOL        PBPSTACKTOP
  N:0000H         SYMBOL        PDATALEN
  N:0000H         SYMBOL        PDATASTART
  N:0000H         SYMBOL        PPAGE
  N:0000H         SYMBOL        PPAGEENABLE
  D:00A0H         SYMBOL        PPAGE_SFR
  D:0081H         SYMBOL        SP
  C:0800H         SYMBOL        STARTUP1
  N:0000H         SYMBOL        XBPSTACK
  N:0000H         SYMBOL        XBPSTACKTOP
  N:0000H         SYMBOL        XDATALEN
  N:0000H         SYMBOL        XDATASTART
  C:0000H         LINE#         126
  C:0800H         LINE#         133
  C:0802H         LINE#         134
  C:0803H         LINE#         135
  C:0804H         LINE#         136
  C:0806H         LINE#         185
  C:0809H         LINE#         196
  -------         ENDMOD        ?C_STARTUP

  -------         MODULE        MAIN
  C:0000H         SYMBOL        _ICE_DUMMY_
  D:0080H         PUBLIC        P0
  D:0090H         PUBLIC        P1
  D:00A0H         PUBLIC        P2
  D:00B0H         PUBLIC        P3
  D:00C0H         PUBLIC        P4
  D:00C8H         PUBLIC        P5
  D:00E8H         PUBLIC        P6
  D:00F8H         PUBLIC        P7
  D:00A8H         PUBLIC        IE
  D:00B8H         PUBLIC        IP
  D:00D8H         PUBLIC        CCON
  C:0B59H         PUBLIC        main
  D:0098H         PUBLIC        SCON
  D:0088H         PUBLIC        TCON
  D:00D0H         PUBLIC        PSW
  -------         PROC          MAIN
  C:0B59H         LINE#         8
BL51 BANKED LINKER/LOCATER V6.22                                                      09/28/2021  10:43:43  PAGE 4


  C:0B59H         LINE#         9
  C:0B59H         LINE#         11
  C:0B5CH         LINE#         12
  C:0B5FH         LINE#         14
  C:0B62H         LINE#         15
  C:0B65H         LINE#         16
  C:0B65H         LINE#         17
  C:0B65H         LINE#         18
  C:0B68H         LINE#         19
  C:0B68H         LINE#         20
  C:0B6AH         LINE#         21
  C:0B70H         LINE#         22
  C:0B73H         LINE#         23
  C:0B76H         LINE#         25
  C:0B76H         LINE#         26
  C:0B79H         LINE#         27
  C:0B79H         LINE#         28
  C:0B7BH         LINE#         31
  C:0B7EH         LINE#         32
  C:0B81H         LINE#         33
  C:0B84H         LINE#         38
  C:0B84H         LINE#         39
  -------         ENDPROC       MAIN
  -------         ENDMOD        MAIN

  -------         MODULE        LED
  C:0000H         SYMBOL        _ICE_DUMMY_
  D:0080H         PUBLIC        P0
  D:0090H         PUBLIC        P1
  D:00A0H         PUBLIC        P2
  D:00B0H         PUBLIC        P3
  D:00C0H         PUBLIC        P4
  D:00C8H         PUBLIC        P5
  D:00E8H         PUBLIC        P6
  D:00F8H         PUBLIC        P7
  D:00A8H         PUBLIC        IE
  D:00B8H         PUBLIC        IP
  D:00D8H         PUBLIC        CCON
  D:0098H         PUBLIC        SCON
  D:0088H         PUBLIC        TCON
  C:0C79H         PUBLIC        light4_Tab
  C:0BB0H         PUBLIC        light1
  C:0BD3H         PUBLIC        light2
  C:0BF6H         PUBLIC        light3
  C:0AD7H         PUBLIC        light4
  C:0B19H         PUBLIC        main_LED
  D:00D0H         PUBLIC        PSW
  -------         PROC          MAIN_LED
  -------         DO            
  D:0022H         SYMBOL        LED_num
  B:0020H.0       SYMBOL        FREEZE
  -------         ENDDO         
  C:0B19H         LINE#         5
  C:0B19H         LINE#         6
  C:0B19H         LINE#         10
  C:0B1CH         LINE#         11
  C:0B1CH         LINE#         12
BL51 BANKED LINKER/LOCATER V6.22                                                      09/28/2021  10:43:43  PAGE 5


  C:0B1EH         LINE#         13
  C:0B20H         LINE#         14
  C:0B22H         LINE#         15
  C:0B29H         LINE#         16
  C:0B29H         LINE#         17
  C:0B2CH         LINE#         18
  C:0B2FH         LINE#         19
  C:0B2FH         LINE#         20
  C:0B2FH         LINE#         21
  C:0B32H         LINE#         22
  C:0B32H         LINE#         23
  C:0B34H         LINE#         24
  C:0B36H         LINE#         25
  C:0B36H         LINE#         27
  C:0B39H         LINE#         28
  C:0B39H         LINE#         29
  C:0B49H         LINE#         30
  C:0B49H         LINE#         31
  C:0B4CH         LINE#         32
  C:0B4FH         LINE#         33
  C:0B52H         LINE#         34
  C:0B55H         LINE#         35
  C:0B55H         LINE#         36
  C:0B55H         LINE#         37
  C:0B55H         LINE#         39
  C:0B55H         LINE#         40
  C:0B58H         LINE#         41
  C:0B58H         LINE#         42
  -------         ENDPROC       MAIN_LED
  -------         PROC          LIGHT1
  -------         DO            
  D:0023H         SYMBOL        COUNT
  B:0020H.1       SYMBOL        trigger
  -------         ENDDO         
  C:0BB0H         LINE#         43
  C:0BB0H         LINE#         44
  C:0BB0H         LINE#         47
  C:0BB8H         LINE#         48
  C:0BC1H         LINE#         49
  C:0BC1H         LINE#         50
  C:0BC6H         LINE#         51
  C:0BC8H         LINE#         52
  C:0BC8H         LINE#         53
  C:0BCBH         LINE#         54
  C:0BCBH         LINE#         55
  C:0BCEH         LINE#         56
  C:0BCFH         LINE#         58
  C:0BCFH         LINE#         59
  C:0BD2H         LINE#         60
  C:0BD2H         LINE#         61
  -------         ENDPROC       LIGHT1
  -------         PROC          LIGHT2
  -------         DO            
  D:0025H         SYMBOL        COUNT
  B:0020H.2       SYMBOL        trigger
  -------         ENDDO         
  C:0BD3H         LINE#         62
BL51 BANKED LINKER/LOCATER V6.22                                                      09/28/2021  10:43:43  PAGE 6


  C:0BD3H         LINE#         63
  C:0BD3H         LINE#         66
  C:0BDBH         LINE#         67
  C:0BE4H         LINE#         68
  C:0BE4H         LINE#         69
  C:0BE9H         LINE#         70
  C:0BEBH         LINE#         71
  C:0BEBH         LINE#         72
  C:0BEEH         LINE#         73
  C:0BEEH         LINE#         74
  C:0BF1H         LINE#         75
  C:0BF2H         LINE#         77
  C:0BF2H         LINE#         78
  C:0BF5H         LINE#         79
  C:0BF5H         LINE#         80
  -------         ENDPROC       LIGHT2
  -------         PROC          LIGHT3
  -------         DO            
  D:0027H         SYMBOL        COUNT
  B:0020H.3       SYMBOL        trigger
  -------         ENDDO         
  C:0BF6H         LINE#         81
  C:0BF6H         LINE#         82
  C:0BF6H         LINE#         85
  C:0BFEH         LINE#         86
  C:0C07H         LINE#         87
  C:0C07H         LINE#         88
  C:0C0CH         LINE#         89
  C:0C0EH         LINE#         90
  C:0C0EH         LINE#         91
  C:0C11H         LINE#         92
  C:0C11H         LINE#         93
  C:0C14H         LINE#         94
  C:0C15H         LINE#         96
  C:0C15H         LINE#         97
  C:0C18H         LINE#         98
  C:0C18H         LINE#         99
  -------         ENDPROC       LIGHT3
  -------         PROC          LIGHT4
  -------         DO            
  D:0029H         SYMBOL        COUNT
  D:002BH         SYMBOL        trigger
  -------         ENDDO         
  C:0AD7H         LINE#         100
  C:0AD7H         LINE#         101
  C:0AD7H         LINE#         105
  C:0ADFH         LINE#         106
  C:0AE8H         LINE#         107
  C:0AE8H         LINE#         108
  C:0AEDH         LINE#         109
  C:0AF5H         LINE#         110
  C:0AFDH         LINE#         111
  C:0AFDH         LINE#         112
  C:0B02H         LINE#         113
  C:0B02H         LINE#         114
  C:0B02H         LINE#         115
  C:0B08H         LINE#         116
BL51 BANKED LINKER/LOCATER V6.22                                                      09/28/2021  10:43:43  PAGE 7


  C:0B08H         LINE#         117
  C:0B18H         LINE#         118
  C:0B18H         LINE#         119
  -------         ENDPROC       LIGHT4
  -------         ENDMOD        LED

  -------         MODULE        BITMAP
  C:0000H         SYMBOL        _ICE_DUMMY_
  D:0096H         PUBLIC        P2M0
  D:0080H         PUBLIC        P0
  D:00B2H         PUBLIC        P3M0
  D:0095H         PUBLIC        P2M1
  D:0090H         PUBLIC        P1
  D:00B4H         PUBLIC        P4M0
  D:00B1H         PUBLIC        P3M1
  D:00A0H         PUBLIC        P2
  D:00B3H         PUBLIC        P4M1
  D:00B0H         PUBLIC        P3
  D:00C0H         PUBLIC        P4
  D:00C8H         PUBLIC        P5
  D:00E8H         PUBLIC        P6
  D:00F8H         PUBLIC        P7
  D:00A8H         PUBLIC        IE
  D:00B8H         PUBLIC        IP
  C:0911H         SYMBOL        NUM0
  C:0919H         SYMBOL        NUM1
  C:0921H         SYMBOL        NUM2
  C:0929H         SYMBOL        NUM3
  D:00D8H         PUBLIC        CCON
  C:0931H         SYMBOL        NUM4
  C:0939H         SYMBOL        NUM5
  C:0941H         SYMBOL        NUM6
  C:08F9H         SYMBOL        Heart0
  C:0949H         SYMBOL        NUM7
  C:0901H         SYMBOL        Heart1
  C:0951H         SYMBOL        NUM8
  C:0959H         SYMBOL        NUM9
  D:0098H         PUBLIC        SCON
  D:0088H         PUBLIC        TCON
  C:0A01H         PUBLIC        BitMap_Init
  C:09B1H         PUBLIC        main_BitMap
  D:000AH         PUBLIC        BitMapTab
  C:0909H         SYMBOL        BLOCK
  B:00B0H.2       PUBLIC        BitMap1
  B:00C0H.1       PUBLIC        BitMap2
  B:00B0H.3       PUBLIC        BitMap3
  B:00B0H.6       PUBLIC        BitMap4
  B:00C0H.4       PUBLIC        BitMap5
  B:00B0H.4       PUBLIC        BitMap6
  B:00C0H.2       PUBLIC        BitMap7
  B:00B0H.5       PUBLIC        BitMap8
  D:00D0H         PUBLIC        PSW
  C:088CH         PUBLIC        BitMap_Display
  -------         PROC          BITMAP_DISPLAY
  -------         DO            
  D:0008H         SYMBOL        accept_count
  -------         ENDDO         
BL51 BANKED LINKER/LOCATER V6.22                                                      09/28/2021  10:43:43  PAGE 8


  C:088CH         LINE#         19
  C:088CH         LINE#         20
  C:088CH         LINE#         22
  C:089CH         LINE#         23
  C:089EH         LINE#         24
  C:08A5H         LINE#         25
  C:08A5H         LINE#         26
  C:08A8H         LINE#         27
  C:08A8H         LINE#         28
  C:08B3H         LINE#         29
  C:08E1H         LINE#         30
  C:08E1H         LINE#         31
  C:08E4H         LINE#         32
  C:08E7H         LINE#         33
  C:08EAH         LINE#         34
  C:08EDH         LINE#         35
  C:08F0H         LINE#         36
  C:08F3H         LINE#         37
  C:08F6H         LINE#         38
  C:08F8H         LINE#         39
  C:08F8H         LINE#         40
  C:08F8H         LINE#         41
  -------         ENDPROC       BITMAP_DISPLAY
  -------         PROC          MAIN_BITMAP
  -------         DO            
  D:0007H         SYMBOL        i
  D:0009H         SYMBOL        trigger_BM
  -------         ENDDO         
  C:09B1H         LINE#         42
  C:09B1H         LINE#         43
  C:09B1H         LINE#         47
  C:09B4H         LINE#         48
  C:09B4H         LINE#         49
  C:09B6H         LINE#         50
  C:09B8H         LINE#         51
  C:09B8H         LINE#         57
  C:09C5H         LINE#         58
  C:09C5H         LINE#         59
  C:09C5H         LINE#         60
  C:09C7H         LINE#         61
  C:09C7H         LINE#         62
  C:09DCH         LINE#         63
  C:09E1H         LINE#         64
  C:09E1H         LINE#         66
  C:09E1H         LINE#         67
  C:09E3H         LINE#         68
  C:09E3H         LINE#         69
  C:09F8H         LINE#         70
  C:09FDH         LINE#         71
  C:09FDH         LINE#         73
  C:0A00H         LINE#         74
  C:0A00H         LINE#         75
  C:0A00H         LINE#         77
  -------         ENDPROC       MAIN_BITMAP
  -------         PROC          BITMAP_INIT
  C:0A01H         LINE#         193
  C:0A01H         LINE#         194
BL51 BANKED LINKER/LOCATER V6.22                                                      09/28/2021  10:43:43  PAGE 9


  C:0A01H         LINE#         195
  C:0A04H         LINE#         196
  C:0A07H         LINE#         198
  C:0A0AH         LINE#         199
  C:0A0DH         LINE#         201
  C:0A10H         LINE#         202
  C:0A13H         LINE#         204
  C:0A16H         LINE#         205
  C:0A19H         LINE#         207
  C:0A1CH         LINE#         208
  C:0A1FH         LINE#         210
  C:0A22H         LINE#         211
  C:0A25H         LINE#         213
  C:0A28H         LINE#         214
  C:0A2BH         LINE#         216
  C:0A2EH         LINE#         217
  C:0A31H         LINE#         219
  C:0A34H         LINE#         220
  C:0A37H         LINE#         222
  C:0A3AH         LINE#         223
  C:0A4AH         LINE#         224
  -------         ENDPROC       BITMAP_INIT
  -------         ENDMOD        BITMAP

  -------         MODULE        SYSLED
  C:0000H         SYMBOL        _ICE_DUMMY_
  D:0080H         PUBLIC        P0
  D:0090H         PUBLIC        P1
  D:00A0H         PUBLIC        P2
  D:00B0H         PUBLIC        P3
  D:00C0H         PUBLIC        P4
  D:00C8H         PUBLIC        P5
  D:00E8H         PUBLIC        P6
  D:00F8H         PUBLIC        P7
  D:00A8H         PUBLIC        IE
  C:0C36H         PUBLIC        SysLED
  D:00B8H         PUBLIC        IP
  D:00D8H         PUBLIC        CCON
  D:0098H         PUBLIC        SCON
  D:0088H         PUBLIC        TCON
  B:00C0H.5       PUBLIC        P45
  D:00D0H         PUBLIC        PSW
  -------         PROC          SYSLED
  -------         DO            
  D:001EH         SYMBOL        SysLED_Count
  -------         ENDDO         
  C:0C36H         LINE#         3
  C:0C36H         LINE#         4
  C:0C36H         LINE#         5
  C:0C36H         LINE#         7
  C:0C3EH         LINE#         8
  C:0C47H         LINE#         9
  C:0C47H         LINE#         10
  C:0C4CH         LINE#         11
  C:0C4EH         LINE#         12
  C:0C4EH         LINE#         13
  C:0C4EH         LINE#         15
BL51 BANKED LINKER/LOCATER V6.22                                                      09/28/2021  10:43:43  PAGE 10


  -------         ENDPROC       SYSLED
  -------         ENDMOD        SYSLED

  -------         MODULE        TIMER
  C:0000H         SYMBOL        _ICE_DUMMY_
  D:0080H         PUBLIC        P0
  D:0090H         PUBLIC        P1
  D:00A0H         PUBLIC        P2
  D:00B0H         PUBLIC        P3
  D:00C0H         PUBLIC        P4
  D:00C8H         PUBLIC        P5
  B:00A8H.7       PUBLIC        EA
  D:00E8H         PUBLIC        P6
  D:00F8H         PUBLIC        P7
  D:00A8H         PUBLIC        IE
  C:0C89H         PUBLIC        T0_Isr
  C:0C8CH         PUBLIC        T1_Isr
  D:00B8H         PUBLIC        IP
  B:0021H.0       PUBLIC        trigger_10ms
  D:00D8H         PUBLIC        CCON
  D:0098H         PUBLIC        SCON
  D:0089H         PUBLIC        TMOD
  D:0088H         PUBLIC        TCON
  D:008EH         PUBLIC        AUXR
  B:00A8H.1       PUBLIC        ET0
  B:0088H.5       PUBLIC        TF0
  B:00A8H.3       PUBLIC        ET1
  C:0C4FH         PUBLIC        Timer0Init
  B:0088H.7       PUBLIC        TF1
  C:0C64H         PUBLIC        Timer1Init
  D:008CH         PUBLIC        TH0
  D:008DH         PUBLIC        TH1
  D:008AH         PUBLIC        TL0
  D:008BH         PUBLIC        TL1
  B:0088H.4       PUBLIC        TR0
  B:0088H.6       PUBLIC        TR1
  B:0021H.1       PUBLIC        trigger_1ms
  D:00D0H         PUBLIC        PSW
  -------         PROC          TIMER0INIT
  C:0C4FH         LINE#         5
  C:0C4FH         LINE#         6
  C:0C4FH         LINE#         7
  C:0C52H         LINE#         8
  C:0C55H         LINE#         9
  C:0C58H         LINE#         10
  C:0C5BH         LINE#         11
  C:0C5DH         LINE#         12
  C:0C5FH         LINE#         13
  C:0C61H         LINE#         14
  C:0C63H         LINE#         15
  -------         ENDPROC       TIMER0INIT
  -------         PROC          TIMER1INIT
  C:0C64H         LINE#         17
  C:0C64H         LINE#         18
  C:0C64H         LINE#         19
  C:0C67H         LINE#         20
  C:0C6AH         LINE#         21
BL51 BANKED LINKER/LOCATER V6.22                                                      09/28/2021  10:43:43  PAGE 11


  C:0C6DH         LINE#         22
  C:0C70H         LINE#         23
  C:0C72H         LINE#         24
  C:0C74H         LINE#         25
  C:0C76H         LINE#         26
  C:0C78H         LINE#         27
  -------         ENDPROC       TIMER1INIT
  -------         PROC          T0_ISR
  C:0C89H         LINE#         29
  C:0C89H         LINE#         31
  C:0C8BH         LINE#         32
  -------         ENDPROC       T0_ISR
  -------         PROC          T1_ISR
  C:0C8CH         LINE#         33
  C:0C8CH         LINE#         35
  C:0C8EH         LINE#         36
  -------         ENDPROC       T1_ISR
  -------         ENDMOD        TIMER

  -------         MODULE        BLEEP
  C:0000H         SYMBOL        _ICE_DUMMY_
  D:0080H         PUBLIC        P0
  D:00B2H         PUBLIC        P3M0
  D:0090H         PUBLIC        P1
  D:00B1H         PUBLIC        P3M1
  D:00A0H         PUBLIC        P2
  D:00B0H         PUBLIC        P3
  D:00C0H         PUBLIC        P4
  D:00C8H         PUBLIC        P5
  D:00E8H         PUBLIC        P6
  D:00F8H         PUBLIC        P7
  C:0C8FH         PUBLIC        BleepON
  D:00F9H         PUBLIC        CH
  D:00A8H         PUBLIC        IE
  D:00E9H         PUBLIC        CL
  D:00FCH         PUBLIC        CCAP2H
  B:00D8H.6       PUBLIC        CR
  D:00ECH         PUBLIC        CCAP2L
  D:00DCH         PUBLIC        CCAPM2
  D:00B8H         PUBLIC        IP
  D:00D9H         PUBLIC        CMOD
  D:00D8H         PUBLIC        CCON
  D:0098H         PUBLIC        SCON
  D:0088H         PUBLIC        TCON
  B:00B0H.7       PUBLIC        P37
  C:0C92H         PUBLIC        BleepOFF
  D:00F4H         PUBLIC        PCA_PWM2
  C:0C19H         PUBLIC        Bleep_Init
  C:0B86H         PUBLIC        Bleep
  D:00D0H         PUBLIC        PSW
  -------         PROC          BLEEP_INIT
  C:0C19H         LINE#         3
  C:0C19H         LINE#         4
  C:0C19H         LINE#         5
  C:0C1CH         LINE#         6
  C:0C1FH         LINE#         7
  C:0C22H         LINE#         8
BL51 BANKED LINKER/LOCATER V6.22                                                      09/28/2021  10:43:43  PAGE 12


  C:0C24H         LINE#         9
  C:0C26H         LINE#         10
  C:0C28H         LINE#         11
  C:0C2AH         LINE#         12
  C:0C30H         LINE#         13
  C:0C33H         LINE#         14
  C:0C35H         LINE#         15
  -------         ENDPROC       BLEEP_INIT
  -------         PROC          BLEEP
  -------         DO            
  D:002DH         SYMBOL        Time100ms_Cnt
  -------         ENDDO         
  C:0B86H         LINE#         17
  C:0B86H         LINE#         18
  C:0B86H         LINE#         22
  C:0B89H         LINE#         23
  C:0B89H         LINE#         24
  C:0B8CH         LINE#         25
  C:0B94H         LINE#         26
  C:0B9DH         LINE#         27
  C:0B9DH         LINE#         28
  C:0BA2H         LINE#         29
  C:0BA4H         LINE#         30
  C:0BA6H         LINE#         31
  C:0BA6H         LINE#         32
  C:0BA7H         LINE#         34
  C:0BA7H         LINE#         35
  C:0BAAH         LINE#         36
  C:0BAFH         LINE#         37
  C:0BAFH         LINE#         39
  -------         ENDPROC       BLEEP
  -------         PROC          BLEEPON
  C:0C8FH         LINE#         43
  C:0C8FH         LINE#         44
  C:0C8FH         LINE#         45
  C:0C91H         LINE#         46
  -------         ENDPROC       BLEEPON
  -------         PROC          BLEEPOFF
  C:0C92H         LINE#         47
  C:0C92H         LINE#         48
  C:0C92H         LINE#         49
  C:0C94H         LINE#         50
  -------         ENDPROC       BLEEPOFF
  -------         ENDMOD        BLEEP

  -------         MODULE        KEY
  C:0000H         SYMBOL        _ICE_DUMMY_
  D:0080H         PUBLIC        P0
  D:0090H         PUBLIC        P1
  D:00A0H         PUBLIC        P2
  D:00B0H         PUBLIC        P3
  D:00C0H         PUBLIC        P4
  D:00C8H         PUBLIC        P5
  D:00E8H         PUBLIC        P6
  B:0020H.4       PUBLIC        trigger_KEY2_1
  D:00F8H         PUBLIC        P7
  D:00A8H         PUBLIC        IE
BL51 BANKED LINKER/LOCATER V6.22                                                      09/28/2021  10:43:43  PAGE 13


  D:00B8H         PUBLIC        IP
  D:00D8H         PUBLIC        CCON
  B:0020H.5       PUBLIC        trigger_KEY_control
  D:0098H         PUBLIC        SCON
  D:0088H         PUBLIC        TCON
  B:00C8H.4       PUBLIC        P54
  B:00C8H.5       PUBLIC        P55
  C:0A92H         PUBLIC        KEY1_CHECK
  C:0A4BH         PUBLIC        KEY2_CHECK
  B:0020H.6       PUBLIC        trigger_KEY1
  B:0020H.7       PUBLIC        trigger_KEY2
  D:00D0H         PUBLIC        PSW
  -------         PROC          KEY1_CHECK
  -------         DO            
  D:001AH         SYMBOL        KEY1_Cnt
  D:001BH         SYMBOL        KEY1_Status
  -------         ENDDO         
  C:0A92H         LINE#         8
  C:0A92H         LINE#         9
  C:0A92H         LINE#         13
  C:0A9EH         LINE#         14
  C:0A9EH         LINE#         15
  C:0A9EH         LINE#         16
  C:0AA1H         LINE#         17
  C:0AA1H         LINE#         18
  C:0AA4H         LINE#         19
  C:0AA7H         LINE#         20
  C:0AA8H         LINE#         22
  C:0AA8H         LINE#         23
  C:0AAAH         LINE#         24
  C:0AB1H         LINE#         25
  C:0AB1H         LINE#         26
  C:0AB4H         LINE#         27
  C:0AB6H         LINE#         28
  C:0AB6H         LINE#         29
  C:0AB6H         LINE#         30
  C:0AB7H         LINE#         32
  C:0AB7H         LINE#         33
  C:0ABAH         LINE#         34
  C:0ABAH         LINE#         35
  C:0ABCH         LINE#         36
  C:0AC3H         LINE#         37
  C:0AC3H         LINE#         38
  C:0AC6H         LINE#         39
  C:0AC8H         LINE#         40
  C:0ACAH         LINE#         41
  C:0ACDH         LINE#         42
  C:0ACDH         LINE#         43
  C:0ACEH         LINE#         51
  C:0ACEH         LINE#         52
  C:0AD1H         LINE#         53
  C:0AD1H         LINE#         54
  C:0AD4H         LINE#         55
  C:0AD6H         LINE#         56
  C:0AD6H         LINE#         57
  C:0AD6H         LINE#         58
  C:0AD6H         LINE#         59
BL51 BANKED LINKER/LOCATER V6.22                                                      09/28/2021  10:43:43  PAGE 14


  -------         ENDPROC       KEY1_CHECK
  -------         PROC          KEY2_CHECK
  -------         DO            
  D:001CH         SYMBOL        KEY2_Cnt
  D:001DH         SYMBOL        KEY2_Status
  -------         ENDDO         
  C:0A4BH         LINE#         61
  C:0A4BH         LINE#         62
  C:0A4BH         LINE#         66
  C:0A57H         LINE#         67
  C:0A57H         LINE#         68
  C:0A57H         LINE#         69
  C:0A5AH         LINE#         70
  C:0A5AH         LINE#         71
  C:0A5DH         LINE#         72
  C:0A60H         LINE#         73
  C:0A61H         LINE#         75
  C:0A61H         LINE#         76
  C:0A63H         LINE#         77
  C:0A6AH         LINE#         78
  C:0A6AH         LINE#         79
  C:0A6DH         LINE#         80
  C:0A6FH         LINE#         81
  C:0A6FH         LINE#         82
  C:0A6FH         LINE#         83
  C:0A70H         LINE#         85
  C:0A70H         LINE#         86
  C:0A73H         LINE#         87
  C:0A73H         LINE#         88
  C:0A75H         LINE#         89
  C:0A7CH         LINE#         90
  C:0A7CH         LINE#         91
  C:0A7FH         LINE#         92
  C:0A81H         LINE#         93
  C:0A83H         LINE#         94
  C:0A85H         LINE#         96
  C:0A88H         LINE#         97
  C:0A88H         LINE#         98
  C:0A89H         LINE#         106
  C:0A89H         LINE#         107
  C:0A8CH         LINE#         108
  C:0A8CH         LINE#         109
  C:0A8FH         LINE#         110
  C:0A91H         LINE#         111
  C:0A91H         LINE#         112
  C:0A91H         LINE#         113
  C:0A91H         LINE#         114
  -------         ENDPROC       KEY2_CHECK
  -------         ENDMOD        KEY

******************************************************************************
* RESTRICTED VERSION WITH 0800H BYTE CODE SIZE LIMIT; USED: 041DH BYTE (51%) *
******************************************************************************

Program Size: data=47.2 xdata=0 code=1182
LINK/LOCATE RUN COMPLETE.  0 WARNING(S),  0 ERROR(S)
